; Function Attrs: mustprogress nounwind uwtable
define hidden void @_ZN22CompactHashtableWriterD2Ev(ptr nocapture noundef nonnull readonly align 8 dereferenceable(56) %0) unnamed_addr #0 align 2 {
  %2 = getelementptr inbounds i8, ptr %0, i64 4
  %3 = load i32, ptr %2, align 4
  %4 = icmp sgt i32 %3, 0
  br i1 %4, label %.lr.ph, label %._crit_edge

.lr.ph:                                           ; preds = %1
  %5 = getelementptr inbounds i8, ptr %0, i64 24
  br label %6

6:                                                ; preds = %.lr.ph, %17
  %7 = phi i32 [ %3, %.lr.ph ], [ %18, %17 ]
  %indvars.iv = phi i64 [ 0, %.lr.ph ], [ %indvars.iv.next, %17 ]
  %8 = load ptr, ptr %5, align 8
  %9 = getelementptr inbounds ptr, ptr %8, i64 %indvars.iv
  %10 = load ptr, ptr %9, align 8
  %11 = icmp eq ptr %10, null
  br i1 %11, label %17, label %12

12:                                               ; preds = %6
  %13 = getelementptr inbounds i8, ptr %10, i64 16
  %14 = load i64, ptr %13, align 8
  %15 = and i64 %14, 1
  %.not.i = icmp eq i64 %15, 0
  br i1 %.not.i, label %_ZN13GrowableArrayIN22CompactHashtableWriter5EntryEED2Ev.exit, label %16

16:                                               ; preds = %12
  store i32 0, ptr %10, align 4
  tail call void @_ZN26GrowableArrayWithAllocatorIN22CompactHashtableWriter5EntryE13GrowableArrayIS1_EE13shrink_to_fitEv(ptr noundef nonnull align 8 dereferenceable(16) %10)
  br label %_ZN13GrowableArrayIN22CompactHashtableWriter5EntryEED2Ev.exit

_ZN13GrowableArrayIN22CompactHashtableWriter5EntryEED2Ev.exit: ; preds = %12, %16
  tail call void @_ZN6AnyObjdlEPv(ptr noundef nonnull %10) #14
  %.pre = load i32, ptr %2, align 4
  br label %17

17:                                               ; preds = %6, %_ZN13GrowableArrayIN22CompactHashtableWriter5EntryEED2Ev.exit
  %18 = phi i32 [ %7, %6 ], [ %.pre, %_ZN13GrowableArrayIN22CompactHashtableWriter5EntryEED2Ev.exit ]
  %indvars.iv.next = add nuw nsw i64 %indvars.iv, 1
  %19 = sext i32 %18 to i64
  %20 = icmp slt i64 %indvars.iv.next, %19
  br i1 %20, label %6, label %._crit_edge, !llvm.loop !8

._crit_edge:                                      ; preds = %17, %1
  %21 = getelementptr inbounds i8, ptr %0, i64 24
  %22 = load ptr, ptr %21, align 8
  tail call void @_Z8FreeHeapPv(ptr noundef %22) #14
  ret void
}